; Function Attrs: nounwind uwtable
define void @Gia_PolynCoreNonXors_rec(ptr noundef %0, ptr noundef %1, ptr noundef %2) local_unnamed_addr #0 {
  %4 = alloca ptr, align 8
  %5 = alloca ptr, align 8
  call void @llvm.lifetime.start.p0(i64 8, ptr nonnull %4) #19
  call void @llvm.lifetime.start.p0(i64 8, ptr nonnull %5) #19
  %6 = call i32 @Gia_ObjRecognizeExor(ptr noundef %1, ptr noundef nonnull %4, ptr noundef nonnull %5) #19
  %.not = icmp eq i32 %6, 0
  br i1 %.not, label %75, label %7

7:                                                ; preds = %3
  %8 = load ptr, ptr %4, align 8, !tbaa !3
  %9 = ptrtoint ptr %8 to i64
  %10 = and i64 %9, -2
  %11 = inttoptr i64 %10 to ptr
  call void @Gia_PolynCoreNonXors_rec(ptr noundef %0, ptr noundef %11, ptr noundef %2)
  %12 = load ptr, ptr %5, align 8, !tbaa !3
  %13 = ptrtoint ptr %12 to i64
  %14 = and i64 %13, -2
  %15 = inttoptr i64 %14 to ptr
  call void @Gia_PolynCoreNonXors_rec(ptr noundef %0, ptr noundef %15, ptr noundef %2)
  %16 = load ptr, ptr %4, align 8, !tbaa !3
  %17 = ptrtoint ptr %16 to i64
  %18 = and i64 %17, -2
  %19 = getelementptr i8, ptr %0, i64 32
  %.val = load ptr, ptr %19, align 8, !tbaa !8
  %20 = ptrtoint ptr %.val to i64
  %21 = sub i64 %18, %20
  %22 = sdiv exact i64 %21, 12
  %23 = trunc i64 %22 to i32
  %24 = load ptr, ptr %5, align 8, !tbaa !3
  %25 = ptrtoint ptr %24 to i64
  %26 = and i64 %25, -2
  %27 = sub i64 %26, %20
  %28 = sdiv exact i64 %27, 12
  %29 = trunc i64 %28 to i32
  %30 = getelementptr inbounds nuw i8, ptr %2, i64 4
  %31 = load i32, ptr %30, align 4, !tbaa !29
  %32 = load i32, ptr %2, align 8, !tbaa !30
  %33 = icmp eq i32 %31, %32
  br i1 %33, label %34, label %.Vec_IntGrow.exit10_crit_edge.i.i

.Vec_IntGrow.exit10_crit_edge.i.i:                ; preds = %7
  %.phi.trans.insert.i.i = getelementptr inbounds nuw i8, ptr %2, i64 8
  %.pre.i.i = load ptr, ptr %.phi.trans.insert.i.i, align 8, !tbaa !31
  br label %Vec_IntPush.exit.i

34:                                               ; preds = %7
  %35 = icmp slt i32 %31, 16
  br i1 %35, label %36, label %44

36:                                               ; preds = %34
  %37 = getelementptr inbounds nuw i8, ptr %2, i64 8
  %38 = load ptr, ptr %37, align 8, !tbaa !31
  %.not9.i.i.i = icmp eq ptr %38, null
  br i1 %.not9.i.i.i, label %41, label %39

39:                                               ; preds = %36
  %40 = call dereferenceable_or_null(64) ptr @realloc(ptr noundef nonnull %38, i64 noundef 64) #20
  br label %Vec_IntGrow.exit.i.i

41:                                               ; preds = %36
  %42 = call noalias dereferenceable_or_null(64) ptr @malloc(i64 noundef 64) #21
  br label %Vec_IntGrow.exit.i.i

Vec_IntGrow.exit.i.i:                             ; preds = %41, %39
  %43 = phi ptr [ %40, %39 ], [ %42, %41 ]
  store ptr %43, ptr %37, align 8, !tbaa !31
  store i32 16, ptr %2, align 8, !tbaa !30
  br label %Vec_IntPush.exit.i

44:                                               ; preds = %34
  %45 = shl nuw nsw i32 %31, 1
  %46 = getelementptr inbounds nuw i8, ptr %2, i64 8
  %47 = load ptr, ptr %46, align 8, !tbaa !31
  %.not9.i9.i.i = icmp eq ptr %47, null
  %48 = zext nneg i32 %45 to i64
  %49 = shl nuw nsw i64 %48, 2
  br i1 %.not9.i9.i.i, label %52, label %50

50:                                               ; preds = %44
  %51 = call ptr @realloc(ptr noundef nonnull %47, i64 noundef %49) #20
  br label %54

52:                                               ; preds = %44
  %53 = call noalias ptr @malloc(i64 noundef %49) #21
  br label %54

54:                                               ; preds = %52, %50
  %55 = phi ptr [ %51, %50 ], [ %53, %52 ]
  store ptr %55, ptr %46, align 8, !tbaa !31
  store i32 %45, ptr %2, align 8, !tbaa !30
  br label %Vec_IntPush.exit.i

Vec_IntPush.exit.i:                               ; preds = %54, %Vec_IntGrow.exit.i.i, %.Vec_IntGrow.exit10_crit_edge.i.i
  %56 = phi ptr [ %.pre.i.i, %.Vec_IntGrow.exit10_crit_edge.i.i ], [ %55, %54 ], [ %43, %Vec_IntGrow.exit.i.i ]
  %57 = load i32, ptr %30, align 4, !tbaa !29
  %58 = add nsw i32 %57, 1
  store i32 %58, ptr %30, align 4, !tbaa !29
  %59 = sext i32 %57 to i64
  %60 = getelementptr inbounds i32, ptr %56, i64 %59
  store i32 %23, ptr %60, align 4, !tbaa !32
  %61 = load i32, ptr %30, align 4, !tbaa !29
  %62 = load i32, ptr %2, align 8, !tbaa !30
  %63 = icmp eq i32 %61, %62
  br i1 %63, label %Vec_IntPush.exit9.sink.split.i, label %Vec_IntPushTwo.exit

Vec_IntPush.exit9.sink.split.i:                   ; preds = %Vec_IntPush.exit.i
  %64 = icmp slt i32 %61, 16
  %65 = shl nuw nsw i32 %61, 1
  %66 = zext nneg i32 %65 to i64
  %67 = shl nuw nsw i64 %66, 2
  %.sink9 = select i1 %64, i64 64, i64 %67
  %.sink.i = select i1 %64, i32 16, i32 %65
  %68 = call ptr @realloc(ptr noundef nonnull %56, i64 noundef %.sink9) #20
  %69 = getelementptr inbounds nuw i8, ptr %2, i64 8
  store ptr %68, ptr %69, align 8, !tbaa !31
  store i32 %.sink.i, ptr %2, align 8, !tbaa !30
  %.pre = load i32, ptr %30, align 4, !tbaa !29
  br label %Vec_IntPushTwo.exit

Vec_IntPushTwo.exit:                              ; preds = %Vec_IntPush.exit.i, %Vec_IntPush.exit9.sink.split.i
  %70 = phi i32 [ %61, %Vec_IntPush.exit.i ], [ %.pre, %Vec_IntPush.exit9.sink.split.i ]
  %71 = phi ptr [ %56, %Vec_IntPush.exit.i ], [ %68, %Vec_IntPush.exit9.sink.split.i ]
  %72 = add nsw i32 %70, 1
  store i32 %72, ptr %30, align 4, !tbaa !29
  %73 = sext i32 %70 to i64
  %74 = getelementptr inbounds i32, ptr %71, i64 %73
  store i32 %29, ptr %74, align 4, !tbaa !32
  br label %75

75:                                               ; preds = %3, %Vec_IntPushTwo.exit
  call void @llvm.lifetime.end.p0(i64 8, ptr nonnull %5) #19
  call void @llvm.lifetime.end.p0(i64 8, ptr nonnull %4) #19
  ret void
}